target datalayout = "e-m:e-p270:32:32-p271:32:32-p272:64:64-i64:64-i128:128-f80:128-n8:16:32:64-S128"
target triple = "x86_64-pc-linux-gnu"

%struct.FunctionCallInfoBaseData = type { ptr, ptr, ptr, i32, i8, i16, [0 x %struct.NullableDatum] }
%struct.NullableDatum = type { i64, i8 }
%struct.macaddr = type { i8, i8, i8, i8, i8, i8 }

; Function Attrs: inlinehint nounwind uwtable
define internal ptr @DatumGetPointer(i64 noundef %0) #2 {
  %2 = alloca i64, align 8
  store i64 %0, ptr %2, align 8
  %3 = load i64, ptr %2, align 8
  %4 = inttoptr i64 %3 to ptr
  ret ptr %4
}

; Function Attrs: inlinehint nounwind uwtable
define internal i64 @BoolGetDatum(i1 noundef zeroext %0) #2 {
  %2 = alloca i8, align 1
  %3 = zext i1 %0 to i8
  store i8 %3, ptr %2, align 1
  %4 = load i8, ptr %2, align 1, !range !4, !noundef !5
  %5 = trunc i8 %4 to i1
  %6 = select i1 %5, i32 1, i32 0
  %7 = sext i32 %6 to i64
  ret i64 %7
}

; Function Attrs: nounwind uwtable
define internal i32 @macaddr_cmp_internal(ptr noundef %0, ptr noundef %1) #0 {
  %3 = alloca i32, align 4
  %4 = alloca ptr, align 8
  %5 = alloca ptr, align 8
  store ptr %0, ptr %4, align 8
  store ptr %1, ptr %5, align 8
  %6 = load ptr, ptr %4, align 8
  %7 = getelementptr inbounds nuw %struct.macaddr, ptr %6, i32 0, i32 0
  %8 = load i8, ptr %7, align 1
  %9 = zext i8 %8 to i32
  %10 = shl i32 %9, 16
  %11 = load ptr, ptr %4, align 8
  %12 = getelementptr inbounds nuw %struct.macaddr, ptr %11, i32 0, i32 1
  %13 = load i8, ptr %12, align 1
  %14 = zext i8 %13 to i32
  %15 = shl i32 %14, 8
  %16 = or i32 %10, %15
  %17 = load ptr, ptr %4, align 8
  %18 = getelementptr inbounds nuw %struct.macaddr, ptr %17, i32 0, i32 2
  %19 = load i8, ptr %18, align 1
  %20 = zext i8 %19 to i32
  %21 = or i32 %16, %20
  %22 = sext i32 %21 to i64
  %23 = load ptr, ptr %5, align 8
  %24 = getelementptr inbounds nuw %struct.macaddr, ptr %23, i32 0, i32 0
  %25 = load i8, ptr %24, align 1
  %26 = zext i8 %25 to i32
  %27 = shl i32 %26, 16
  %28 = load ptr, ptr %5, align 8
  %29 = getelementptr inbounds nuw %struct.macaddr, ptr %28, i32 0, i32 1
  %30 = load i8, ptr %29, align 1
  %31 = zext i8 %30 to i32
  %32 = shl i32 %31, 8
  %33 = or i32 %27, %32
  %34 = load ptr, ptr %5, align 8
  %35 = getelementptr inbounds nuw %struct.macaddr, ptr %34, i32 0, i32 2
  %36 = load i8, ptr %35, align 1
  %37 = zext i8 %36 to i32
  %38 = or i32 %33, %37
  %39 = sext i32 %38 to i64
  %40 = icmp ult i64 %22, %39
  br i1 %40, label %41, label %42

41:                                               ; preds = %2
  store i32 -1, ptr %3, align 4
  br label %154

42:                                               ; preds = %2
  %43 = load ptr, ptr %4, align 8
  %44 = getelementptr inbounds nuw %struct.macaddr, ptr %43, i32 0, i32 0
  %45 = load i8, ptr %44, align 1
  %46 = zext i8 %45 to i32
  %47 = shl i32 %46, 16
  %48 = load ptr, ptr %4, align 8
  %49 = getelementptr inbounds nuw %struct.macaddr, ptr %48, i32 0, i32 1
  %50 = load i8, ptr %49, align 1
  %51 = zext i8 %50 to i32
  %52 = shl i32 %51, 8
  %53 = or i32 %47, %52
  %54 = load ptr, ptr %4, align 8
  %55 = getelementptr inbounds nuw %struct.macaddr, ptr %54, i32 0, i32 2
  %56 = load i8, ptr %55, align 1
  %57 = zext i8 %56 to i32
  %58 = or i32 %53, %57
  %59 = sext i32 %58 to i64
  %60 = load ptr, ptr %5, align 8
  %61 = getelementptr inbounds nuw %struct.macaddr, ptr %60, i32 0, i32 0
  %62 = load i8, ptr %61, align 1
  %63 = zext i8 %62 to i32
  %64 = shl i32 %63, 16
  %65 = load ptr, ptr %5, align 8
  %66 = getelementptr inbounds nuw %struct.macaddr, ptr %65, i32 0, i32 1
  %67 = load i8, ptr %66, align 1
  %68 = zext i8 %67 to i32
  %69 = shl i32 %68, 8
  %70 = or i32 %64, %69
  %71 = load ptr, ptr %5, align 8
  %72 = getelementptr inbounds nuw %struct.macaddr, ptr %71, i32 0, i32 2
  %73 = load i8, ptr %72, align 1
  %74 = zext i8 %73 to i32
  %75 = or i32 %70, %74
  %76 = sext i32 %75 to i64
  %77 = icmp ugt i64 %59, %76
  br i1 %77, label %78, label %79

78:                                               ; preds = %42
  store i32 1, ptr %3, align 4
  br label %154

79:                                               ; preds = %42
  %80 = load ptr, ptr %4, align 8
  %81 = getelementptr inbounds nuw %struct.macaddr, ptr %80, i32 0, i32 3
  %82 = load i8, ptr %81, align 1
  %83 = zext i8 %82 to i32
  %84 = shl i32 %83, 16
  %85 = load ptr, ptr %4, align 8
  %86 = getelementptr inbounds nuw %struct.macaddr, ptr %85, i32 0, i32 4
  %87 = load i8, ptr %86, align 1
  %88 = zext i8 %87 to i32
  %89 = shl i32 %88, 8
  %90 = or i32 %84, %89
  %91 = load ptr, ptr %4, align 8
  %92 = getelementptr inbounds nuw %struct.macaddr, ptr %91, i32 0, i32 5
  %93 = load i8, ptr %92, align 1
  %94 = zext i8 %93 to i32
  %95 = or i32 %90, %94
  %96 = sext i32 %95 to i64
  %97 = load ptr, ptr %5, align 8
  %98 = getelementptr inbounds nuw %struct.macaddr, ptr %97, i32 0, i32 3
  %99 = load i8, ptr %98, align 1
  %100 = zext i8 %99 to i32
  %101 = shl i32 %100, 16
  %102 = load ptr, ptr %5, align 8
  %103 = getelementptr inbounds nuw %struct.macaddr, ptr %102, i32 0, i32 4
  %104 = load i8, ptr %103, align 1
  %105 = zext i8 %104 to i32
  %106 = shl i32 %105, 8
  %107 = or i32 %101, %106
  %108 = load ptr, ptr %5, align 8
  %109 = getelementptr inbounds nuw %struct.macaddr, ptr %108, i32 0, i32 5
  %110 = load i8, ptr %109, align 1
  %111 = zext i8 %110 to i32
  %112 = or i32 %107, %111
  %113 = sext i32 %112 to i64
  %114 = icmp ult i64 %96, %113
  br i1 %114, label %115, label %116

115:                                              ; preds = %79
  store i32 -1, ptr %3, align 4
  br label %154

116:                                              ; preds = %79
  %117 = load ptr, ptr %4, align 8
  %118 = getelementptr inbounds nuw %struct.macaddr, ptr %117, i32 0, i32 3
  %119 = load i8, ptr %118, align 1
  %120 = zext i8 %119 to i32
  %121 = shl i32 %120, 16
  %122 = load ptr, ptr %4, align 8
  %123 = getelementptr inbounds nuw %struct.macaddr, ptr %122, i32 0, i32 4
  %124 = load i8, ptr %123, align 1
  %125 = zext i8 %124 to i32
  %126 = shl i32 %125, 8
  %127 = or i32 %121, %126
  %128 = load ptr, ptr %4, align 8
  %129 = getelementptr inbounds nuw %struct.macaddr, ptr %128, i32 0, i32 5
  %130 = load i8, ptr %129, align 1
  %131 = zext i8 %130 to i32
  %132 = or i32 %127, %131
  %133 = sext i32 %132 to i64
  %134 = load ptr, ptr %5, align 8
  %135 = getelementptr inbounds nuw %struct.macaddr, ptr %134, i32 0, i32 3
  %136 = load i8, ptr %135, align 1
  %137 = zext i8 %136 to i32
  %138 = shl i32 %137, 16
  %139 = load ptr, ptr %5, align 8
  %140 = getelementptr inbounds nuw %struct.macaddr, ptr %139, i32 0, i32 4
  %141 = load i8, ptr %140, align 1
  %142 = zext i8 %141 to i32
  %143 = shl i32 %142, 8
  %144 = or i32 %138, %143
  %145 = load ptr, ptr %5, align 8
  %146 = getelementptr inbounds nuw %struct.macaddr, ptr %145, i32 0, i32 5
  %147 = load i8, ptr %146, align 1
  %148 = zext i8 %147 to i32
  %149 = or i32 %144, %148
  %150 = sext i32 %149 to i64
  %151 = icmp ugt i64 %133, %150
  br i1 %151, label %152, label %153

152:                                              ; preds = %116
  store i32 1, ptr %3, align 4
  br label %154

153:                                              ; preds = %116
  store i32 0, ptr %3, align 4
  br label %154

154:                                              ; preds = %153, %152, %115, %78, %41
  %155 = load i32, ptr %3, align 4
  ret i32 %155
}

; Function Attrs: inlinehint nounwind uwtable
define internal ptr @DatumGetMacaddrP(i64 noundef %0) #2 {
  %2 = alloca i64, align 8
  store i64 %0, ptr %2, align 8
  %3 = load i64, ptr %2, align 8
  %4 = call ptr @DatumGetPointer(i64 noundef %3)
  ret ptr %4
}

; Function Attrs: nounwind uwtable
define dso_local i64 @macaddr_lt(ptr noundef %0) #0 {
  %2 = alloca ptr, align 8
  %3 = alloca ptr, align 8
  %4 = alloca ptr, align 8
  store ptr %0, ptr %2, align 8
  call void @llvm.lifetime.start.p0(i64 8, ptr %3) #9
  %5 = load ptr, ptr %2, align 8
  %6 = getelementptr inbounds nuw %struct.FunctionCallInfoBaseData, ptr %5, i32 0, i32 6
  %7 = getelementptr inbounds [0 x %struct.NullableDatum], ptr %6, i64 0, i64 0
  %8 = getelementptr inbounds nuw %struct.NullableDatum, ptr %7, i32 0, i32 0
  %9 = load i64, ptr %8, align 8
  %10 = call ptr @DatumGetMacaddrP(i64 noundef %9)
  store ptr %10, ptr %3, align 8
  call void @llvm.lifetime.start.p0(i64 8, ptr %4) #9
  %11 = load ptr, ptr %2, align 8
  %12 = getelementptr inbounds nuw %struct.FunctionCallInfoBaseData, ptr %11, i32 0, i32 6
  %13 = getelementptr inbounds [0 x %struct.NullableDatum], ptr %12, i64 0, i64 1
  %14 = getelementptr inbounds nuw %struct.NullableDatum, ptr %13, i32 0, i32 0
  %15 = load i64, ptr %14, align 8
  %16 = call ptr @DatumGetMacaddrP(i64 noundef %15)
  store ptr %16, ptr %4, align 8
  %17 = load ptr, ptr %3, align 8
  %18 = load ptr, ptr %4, align 8
  %19 = call i32 @macaddr_cmp_internal(ptr noundef %17, ptr noundef %18)
  %20 = icmp slt i32 %19, 0
  %21 = call i64 @BoolGetDatum(i1 noundef zeroext %20)
  call void @llvm.lifetime.end.p0(i64 8, ptr %4) #9
  call void @llvm.lifetime.end.p0(i64 8, ptr %3) #9
  ret i64 %21
}